SF:/home/radivis/projects/zero2prod/src/lib.rs
FN:11,_RNvCscHpF7IrQ9zC_9zero2prod12health_check
FN:22,_RNvCscHpF7IrQ9zC_9zero2prod3run
FN:16,_RNvCscHpF7IrQ9zC_9zero2prod9subscribe
FN:11,_RNCNvCscHpF7IrQ9zC_9zero2prod12health_check0B3_
FN:23,_RNCNvCscHpF7IrQ9zC_9zero2prod3run0B3_
FN:16,_RNCNvCscHpF7IrQ9zC_9zero2prod9subscribe0B3_
FN:11,_RNCNvCslRkHoQpcNW8_9zero2prod12health_check0B3_
FN:23,_RNCNvCslRkHoQpcNW8_9zero2prod3run0B3_
FN:16,_RNCNvCslRkHoQpcNW8_9zero2prod9subscribe0B3_
FN:11,_RNvCslRkHoQpcNW8_9zero2prod12health_check
FN:22,_RNvCslRkHoQpcNW8_9zero2prod3run
FN:16,_RNvCslRkHoQpcNW8_9zero2prod9subscribe
FNDA:1,_RNvCscHpF7IrQ9zC_9zero2prod12health_check
FNDA:3,_RNvCscHpF7IrQ9zC_9zero2prod3run
FNDA:1,_RNvCscHpF7IrQ9zC_9zero2prod9subscribe
FNDA:1,_RNCNvCscHpF7IrQ9zC_9zero2prod12health_check0B3_
FNDA:66,_RNCNvCscHpF7IrQ9zC_9zero2prod3run0B3_
FNDA:1,_RNCNvCscHpF7IrQ9zC_9zero2prod9subscribe0B3_
FNDA:0,_RNCNvCslRkHoQpcNW8_9zero2prod12health_check0B3_
FNDA:0,_RNCNvCslRkHoQpcNW8_9zero2prod3run0B3_
FNDA:0,_RNCNvCslRkHoQpcNW8_9zero2prod9subscribe0B3_
FNDA:0,_RNvCslRkHoQpcNW8_9zero2prod12health_check
FNDA:0,_RNvCslRkHoQpcNW8_9zero2prod3run
FNDA:0,_RNvCslRkHoQpcNW8_9zero2prod9subscribe
FNF:6
FNH:6
DA:11,1
DA:12,1
DA:13,1
DA:16,1
DA:17,1
DA:18,1
DA:22,3
DA:23,66
DA:24,66
DA:25,66
DA:27,66
DA:28,66
DA:29,3
DA:30,3
DA:31,3
DA:32,3
BRF:0
BRH:0
LF:19
LH:19
end_of_record
SF:/home/radivis/projects/zero2prod/src/main.rs
FN:4,_RNCNvCsgjB6Lg2JqQR_9zero2prod4main0B3_
FN:4,_RNvCsgjB6Lg2JqQR_9zero2prod4main
FN:4,_RNvCs6yae06dplh6_9zero2prod4main
FN:4,_RNCNvCs6yae06dplh6_9zero2prod4main0B3_
FNDA:0,_RNCNvCsgjB6Lg2JqQR_9zero2prod4main0B3_
FNDA:0,_RNvCsgjB6Lg2JqQR_9zero2prod4main
FNDA:0,_RNvCs6yae06dplh6_9zero2prod4main
FNDA:0,_RNCNvCs6yae06dplh6_9zero2prod4main0B3_
FNF:2
FNH:0
DA:4,0
DA:5,0
DA:6,0
BRF:0
BRH:0
LF:5
LH:0
end_of_record